(lp0
(lp1
((lp2
I1
aI12
aI23
aI34
aI45
aI56
aI67
aI78
aI89
aI88
aI99
aI110
aI121
aI132
aI143
aI154
aI165
aI176
aI187
aI198
aI209
a(dp3
S'starts'
p4
(lp5
I0
aI1
aI2
aI3
aI4
aI5
aI6
aI7
aI8
aI9
aI10
asS'nodes'
p6
(lp7
(lp8
I0
a((I0
I0
tp9
S''
p10
tp11
aa(lp12
I1
a((I1
I0
tp13
g10
tp14
aa(lp15
I2
a((I2
I0
tp16
g10
tp17
aa(lp18
I3
a((I3
I0
tp19
g10
tp20
aa(lp21
I4
a((I4
I0
tp22
g10
tp23
aa(lp24
I5
a((I5
I0
tp25
g10
tp26
aa(lp27
I6
a((I6
I0
tp28
g10
tp29
aa(lp30
I7
a((I7
I0
tp31
g10
tp32
aa(lp33
I8
a((I8
I0
tp34
g10
tp35
aa(lp36
I9
a((I9
I0
tp37
g10
tp38
aa(lp39
I10
a((I10
I0
tp40
g10
tp41
aa(lp42
I11
a((I0
I1
tp43
g10
tp44
aa(lp45
I12
a((I1
I1
tp46
g10
tp47
aa(lp48
I13
a((I2
I1
tp49
g10
tp50
aa(lp51
I14
a((I3
I1
tp52
g10
tp53
aa(lp54
I15
a((I4
I1
tp55
g10
tp56
aa(lp57
I16
a((I5
I1
tp58
g10
tp59
aa(lp60
I17
a((I6
I1
tp61
g10
tp62
aa(lp63
I18
a((I7
I1
tp64
g10
tp65
aa(lp66
I19
a((I8
I1
tp67
g10
tp68
aa(lp69
I20
a((I9
I1
tp70
g10
tp71
aa(lp72
I21
a((I10
I1
tp73
g10
tp74
aa(lp75
I22
a((I0
I2
tp76
g10
tp77
aa(lp78
I23
a((I1
I2
tp79
g10
tp80
aa(lp81
I24
a((I2
I2
tp82
g10
tp83
aa(lp84
I25
a((I3
I2
tp85
g10
tp86
aa(lp87
I26
a((I4
I2
tp88
g10
tp89
aa(lp90
I27
a((I5
I2
tp91
g10
tp92
aa(lp93
I28
a((I6
I2
tp94
g10
tp95
aa(lp96
I29
a((I7
I2
tp97
g10
tp98
aa(lp99
I30
a((I8
I2
tp100
g10
tp101
aa(lp102
I31
a((I9
I2
tp103
g10
tp104
aa(lp105
I32
a((I10
I2
tp106
g10
tp107
aa(lp108
I33
a((I0
I3
tp109
g10
tp110
aa(lp111
I34
a((I1
I3
tp112
g10
tp113
aa(lp114
I35
a((I2
I3
tp115
g10
tp116
aa(lp117
I36
a((I3
I3
tp118
g10
tp119
aa(lp120
I37
a((I4
I3
tp121
g10
tp122
aa(lp123
I38
a((I5
I3
tp124
g10
tp125
aa(lp126
I39
a((I6
I3
tp127
g10
tp128
aa(lp129
I40
a((I7
I3
tp130
g10
tp131
aa(lp132
I41
a((I8
I3
tp133
g10
tp134
aa(lp135
I42
a((I9
I3
tp136
g10
tp137
aa(lp138
I43
a((I10
I3
tp139
g10
tp140
aa(lp141
I44
a((I0
I4
tp142
g10
tp143
aa(lp144
I45
a((I1
I4
tp145
g10
tp146
aa(lp147
I46
a((I2
I4
tp148
g10
tp149
aa(lp150
I47
a((I3
I4
tp151
g10
tp152
aa(lp153
I48
a((I4
I4
tp154
g10
tp155
aa(lp156
I49
a((I5
I4
tp157
g10
tp158
aa(lp159
I50
a((I6
I4
tp160
g10
tp161
aa(lp162
I51
a((I7
I4
tp163
g10
tp164
aa(lp165
I52
a((I8
I4
tp166
g10
tp167
aa(lp168
I53
a((I9
I4
tp169
g10
tp170
aa(lp171
I54
a((I10
I4
tp172
g10
tp173
aa(lp174
I55
a((I0
I5
tp175
g10
tp176
aa(lp177
I56
a((I1
I5
tp178
g10
tp179
aa(lp180
I57
a((I2
I5
tp181
g10
tp182
aa(lp183
I58
a((I3
I5
tp184
g10
tp185
aa(lp186
I59
a((I4
I5
tp187
g10
tp188
aa(lp189
I60
a((I5
I5
tp190
g10
tp191
aa(lp192
I61
a((I6
I5
tp193
g10
tp194
aa(lp195
I62
a((I7
I5
tp196
g10
tp197
aa(lp198
I63
a((I8
I5
tp199
g10
tp200
aa(lp201
I64
a((I9
I5
tp202
g10
tp203
aa(lp204
I65
a((I10
I5
tp205
g10
tp206
aa(lp207
I66
a((I0
I6
tp208
g10
tp209
aa(lp210
I67
a((I1
I6
tp211
I1
tp212
aa(lp213
I68
a((I2
I6
tp214
g10
tp215
aa(lp216
I69
a((I3
I6
tp217
g10
tp218
aa(lp219
I70
a((I4
I6
tp220
I2
tp221
aa(lp222
I71
a((I5
I6
tp223
g10
tp224
aa(lp225
I72
a((I6
I6
tp226
g10
tp227
aa(lp228
I73
a((I7
I6
tp229
I3
tp230
aa(lp231
I74
a((I8
I6
tp232
g10
tp233
aa(lp234
I75
a((I9
I6
tp235
g10
tp236
aa(lp237
I76
a((I10
I6
tp238
g10
tp239
aa(lp240
I77
a((I0
I7
tp241
g10
tp242
aa(lp243
I78
a((I1
I7
tp244
g10
tp245
aa(lp246
I79
a((I2
I7
tp247
g10
tp248
aa(lp249
I80
a((I3
I7
tp250
g10
tp251
aa(lp252
I81
a((I4
I7
tp253
g10
tp254
aa(lp255
I82
a((I5
I7
tp256
g10
tp257
aa(lp258
I83
a((I6
I7
tp259
g10
tp260
aa(lp261
I84
a((I7
I7
tp262
g10
tp263
aa(lp264
I85
a((I8
I7
tp265
g10
tp266
aa(lp267
I86
a((I9
I7
tp268
g10
tp269
aa(lp270
I87
a((I10
I7
tp271
g10
tp272
aa(lp273
I88
a((I0
I8
tp274
g10
tp275
aa(lp276
I89
a((I1
I8
tp277
g10
tp278
aa(lp279
I90
a((I2
I8
tp280
g10
tp281
aa(lp282
I91
a((I3
I8
tp283
g10
tp284
aa(lp285
I92
a((I4
I8
tp286
g10
tp287
aa(lp288
I93
a((I5
I8
tp289
g10
tp290
aa(lp291
I94
a((I6
I8
tp292
g10
tp293
aa(lp294
I95
a((I7
I8
tp295
g10
tp296
aa(lp297
I96
a((I8
I8
tp298
g10
tp299
aa(lp300
I97
a((I9
I8
tp301
g10
tp302
aa(lp303
I98
a((I10
I8
tp304
g10
tp305
aa(lp306
I99
a((I0
I9
tp307
g10
tp308
aa(lp309
I100
a((I1
I9
tp310
g10
tp311
aa(lp312
I101
a((I2
I9
tp313
g10
tp314
aa(lp315
I102
a((I3
I9
tp316
g10
tp317
aa(lp318
I103
a((I4
I9
tp319
g10
tp320
aa(lp321
I104
a((I5
I9
tp322
g10
tp323
aa(lp324
I105
a((I6
I9
tp325
g10
tp326
aa(lp327
I106
a((I7
I9
tp328
g10
tp329
aa(lp330
I107
a((I8
I9
tp331
g10
tp332
aa(lp333
I108
a((I9
I9
tp334
g10
tp335
aa(lp336
I109
a((I10
I9
tp337
g10
tp338
aa(lp339
I110
a((I0
I10
tp340
g10
tp341
aa(lp342
I111
a((I1
I10
tp343
g10
tp344
aa(lp345
I112
a((I2
I10
tp346
I4
tp347
aa(lp348
I113
a((I3
I10
tp349
g10
tp350
aa(lp351
I114
a((I4
I10
tp352
g10
tp353
aa(lp354
I115
a((I5
I10
tp355
I5
tp356
aa(lp357
I116
a((I6
I10
tp358
g10
tp359
aa(lp360
I117
a((I7
I10
tp361
g10
tp362
aa(lp363
I118
a((I8
I10
tp364
I6
tp365
aa(lp366
I119
a((I9
I10
tp367
g10
tp368
aa(lp369
I120
a((I10
I10
tp370
g10
tp371
aa(lp372
I121
a((I0
I11
tp373
g10
tp374
aa(lp375
I122
a((I1
I11
tp376
g10
tp377
aa(lp378
I123
a((I2
I11
tp379
g10
tp380
aa(lp381
I124
a((I3
I11
tp382
g10
tp383
aa(lp384
I125
a((I4
I11
tp385
g10
tp386
aa(lp387
I126
a((I5
I11
tp388
g10
tp389
aa(lp390
I127
a((I6
I11
tp391
g10
tp392
aa(lp393
I128
a((I7
I11
tp394
g10
tp395
aa(lp396
I129
a((I8
I11
tp397
g10
tp398
aa(lp399
I130
a((I9
I11
tp400
g10
tp401
aa(lp402
I131
a((I10
I11
tp403
g10
tp404
aa(lp405
I132
a((I0
I12
tp406
g10
tp407
aa(lp408
I133
a((I1
I12
tp409
g10
tp410
aa(lp411
I134
a((I2
I12
tp412
g10
tp413
aa(lp414
I135
a((I3
I12
tp415
g10
tp416
aa(lp417
I136
a((I4
I12
tp418
g10
tp419
aa(lp420
I137
a((I5
I12
tp421
g10
tp422
aa(lp423
I138
a((I6
I12
tp424
g10
tp425
aa(lp426
I139
a((I7
I12
tp427
g10
tp428
aa(lp429
I140
a((I8
I12
tp430
g10
tp431
aa(lp432
I141
a((I9
I12
tp433
g10
tp434
aa(lp435
I142
a((I10
I12
tp436
g10
tp437
aa(lp438
I143
a((I0
I13
tp439
g10
tp440
aa(lp441
I144
a((I1
I13
tp442
g10
tp443
aa(lp444
I145
a((I2
I13
tp445
g10
tp446
aa(lp447
I146
a((I3
I13
tp448
g10
tp449
aa(lp450
I147
a((I4
I13
tp451
g10
tp452
aa(lp453
I148
a((I5
I13
tp454
g10
tp455
aa(lp456
I149
a((I6
I13
tp457
g10
tp458
aa(lp459
I150
a((I7
I13
tp460
g10
tp461
aa(lp462
I151
a((I8
I13
tp463
g10
tp464
aa(lp465
I152
a((I9
I13
tp466
g10
tp467
aa(lp468
I153
a((I10
I13
tp469
g10
tp470
aa(lp471
I154
a((I0
I14
tp472
g10
tp473
aa(lp474
I155
a((I1
I14
tp475
g10
tp476
aa(lp477
I156
a((I2
I14
tp478
g10
tp479
aa(lp480
I157
a((I3
I14
tp481
I7
tp482
aa(lp483
I158
a((I4
I14
tp484
g10
tp485
aa(lp486
I159
a((I5
I14
tp487
g10
tp488
aa(lp489
I160
a((I6
I14
tp490
I8
tp491
aa(lp492
I161
a((I7
I14
tp493
g10
tp494
aa(lp495
I162
a((I8
I14
tp496
g10
tp497
aa(lp498
I163
a((I9
I14
tp499
I9
tp500
aa(lp501
I164
a((I10
I14
tp502
g10
tp503
aa(lp504
I165
a((I0
I15
tp505
g10
tp506
aa(lp507
I166
a((I1
I15
tp508
g10
tp509
aa(lp510
I167
a((I2
I15
tp511
g10
tp512
aa(lp513
I168
a((I3
I15
tp514
g10
tp515
aa(lp516
I169
a((I4
I15
tp517
g10
tp518
aa(lp519
I170
a((I5
I15
tp520
g10
tp521
aa(lp522
I171
a((I6
I15
tp523
g10
tp524
aa(lp525
I172
a((I7
I15
tp526
g10
tp527
aa(lp528
I173
a((I8
I15
tp529
g10
tp530
aa(lp531
I174
a((I9
I15
tp532
g10
tp533
aa(lp534
I175
a((I10
I15
tp535
g10
tp536
aa(lp537
I176
a((I0
I16
tp538
g10
tp539
aa(lp540
I177
a((I1
I16
tp541
g10
tp542
aa(lp543
I178
a((I2
I16
tp544
g10
tp545
aa(lp546
I179
a((I3
I16
tp547
g10
tp548
aa(lp549
I180
a((I4
I16
tp550
g10
tp551
aa(lp552
I181
a((I5
I16
tp553
g10
tp554
aa(lp555
I182
a((I6
I16
tp556
g10
tp557
aa(lp558
I183
a((I7
I16
tp559
g10
tp560
aa(lp561
I184
a((I8
I16
tp562
g10
tp563
aa(lp564
I185
a((I9
I16
tp565
g10
tp566
aa(lp567
I186
a((I10
I16
tp568
g10
tp569
aa(lp570
I187
a((I0
I17
tp571
g10
tp572
aa(lp573
I188
a((I1
I17
tp574
g10
tp575
aa(lp576
I189
a((I2
I17
tp577
g10
tp578
aa(lp579
I190
a((I3
I17
tp580
g10
tp581
aa(lp582
I191
a((I4
I17
tp583
g10
tp584
aa(lp585
I192
a((I5
I17
tp586
g10
tp587
aa(lp588
I193
a((I6
I17
tp589
g10
tp590
aa(lp591
I194
a((I7
I17
tp592
g10
tp593
aa(lp594
I195
a((I8
I17
tp595
g10
tp596
aa(lp597
I196
a((I9
I17
tp598
g10
tp599
aa(lp600
I197
a((I10
I17
tp601
g10
tp602
aa(lp603
I198
a((I0
I18
tp604
g10
tp605
aa(lp606
I199
a((I1
I18
tp607
g10
tp608
aa(lp609
I200
a((I2
I18
tp610
g10
tp611
aa(lp612
I201
a((I3
I18
tp613
g10
tp614
aa(lp615
I202
a((I4
I18
tp616
g10
tp617
aa(lp618
I203
a((I5
I18
tp619
g10
tp620
aa(lp621
I204
a((I6
I18
tp622
g10
tp623
aa(lp624
I205
a((I7
I18
tp625
g10
tp626
aa(lp627
I206
a((I8
I18
tp628
g10
tp629
aa(lp630
I207
a((I9
I18
tp631
g10
tp632
aa(lp633
I208
a((I10
I18
tp634
g10
tp635
aa(lp636
I209
a((I0
I19
tp637
g10
tp638
aa(lp639
I210
a((I1
I19
tp640
g10
tp641
aa(lp642
I211
a((I2
I19
tp643
g10
tp644
aa(lp645
I212
a((I3
I19
tp646
g10
tp647
aa(lp648
I213
a((I4
I19
tp649
g10
tp650
aa(lp651
I214
a((I5
I19
tp652
g10
tp653
aa(lp654
I215
a((I6
I19
tp655
g10
tp656
aa(lp657
I216
a((I7
I19
tp658
g10
tp659
aa(lp660
I217
a((I8
I19
tp661
g10
tp662
aa(lp663
I218
a((I9
I19
tp664
g10
tp665
aa(lp666
I219
a((I10
I19
tp667
g10
tp668
aasS'edges'
p669
(lp670
((I40
I51
tp671
(I7
I4
tp672
I1
tp673
a((I105
I116
tp674
(I6
I10
tp675
I1
tp676
a((I197
I208
tp677
(I10
I18
tp678
I1
tp679
a((I139
I150
tp680
(I7
I13
tp681
I1
tp682
a((I139
I140
tp683
(I8
I12
tp684
I1
tp685
a((I139
I138
tp686
(I6
I12
tp687
I1
tp688
a((I188
I199
tp689
(I1
I18
tp690
I1
tp691
a((I77
I88
tp692
(I0
I8
tp693
I1
tp694
a((I67
I78
tp695
(I1
I7
tp696
I1
tp697
a((I110
I121
tp698
(I0
I11
tp699
I1
tp700
a((I80
I91
tp701
(I3
I8
tp702
I1
tp703
a((I57
I68
tp704
(I2
I6
tp705
I1
tp706
a((I122
I133
tp707
(I1
I12
tp708
I1
tp709
a((I63
I74
tp710
(I8
I6
tp711
I1
tp712
a((I93
I104
tp713
(I5
I9
tp714
I1
tp715
a((I93
I94
tp716
(I6
I8
tp717
I1
tp718
a((I93
I92
tp719
(I4
I8
tp720
I1
tp721
a((I4
I15
tp722
(I4
I1
tp723
I1
tp724
a((I98
I109
tp725
(I10
I9
tp726
I1
tp727
a((I98
I97
tp728
(I9
I8
tp729
I1
tp730
a((I9
I20
tp731
(I9
I1
tp732
I1
tp733
a((I83
I94
tp734
(I6
I8
tp735
I1
tp736
a((I60
I71
tp737
(I5
I6
tp738
I1
tp739
a((I87
I98
tp740
(I10
I8
tp741
I1
tp742
a((I73
I84
tp743
(I7
I7
tp744
I1
tp745
a((I116
I127
tp746
(I6
I11
tp747
I1
tp748
a((I203
I214
tp749
(I5
I19
tp750
I1
tp751
a((I208
I219
tp752
(I10
I19
tp753
I1
tp754
a((I187
I198
tp755
(I0
I18
tp756
I1
tp757
a((I44
I55
tp758
(I0
I5
tp759
I1
tp760
a((I44
I45
tp761
(I1
I4
tp762
I1
tp763
a((I12
I23
tp764
(I1
I2
tp765
I1
tp766
a((I173
I184
tp767
(I8
I16
tp768
I1
tp769
a((I114
I125
tp770
(I4
I11
tp771
I1
tp772
a((I25
I36
tp773
(I3
I3
tp774
I1
tp775
a((I68
I79
tp776
(I2
I7
tp777
I1
tp778
a((I163
I174
tp779
(I9
I15
tp780
I1
tp781
a((I30
I41
tp782
(I8
I3
tp783
I1
tp784
a((I126
I137
tp785
(I5
I12
tp786
I1
tp787
a((I59
I70
tp788
(I4
I6
tp789
I1
tp790
a((I153
I164
tp791
(I10
I14
tp792
I1
tp793
a((I42
I53
tp794
(I9
I4
tp795
I1
tp796
a((I6
I17
tp797
(I6
I1
tp798
I1
tp799
a((I180
I191
tp800
(I4
I17
tp801
I1
tp802
a((I180
I181
tp803
(I5
I16
tp804
I1
tp805
a((I180
I179
tp806
(I3
I16
tp807
I1
tp808
a((I185
I196
tp809
(I9
I17
tp810
I1
tp811
a((I185
I186
tp812
(I10
I16
tp813
I1
tp814
a((I185
I184
tp815
(I8
I16
tp816
I1
tp817
a((I62
I73
tp818
(I7
I6
tp819
I1
tp820
a((I189
I200
tp821
(I2
I18
tp822
I1
tp823
a((I11
I22
tp824
(I0
I2
tp825
I1
tp826
a((I135
I146
tp827
(I3
I13
tp828
I1
tp829
a((I135
I136
tp830
(I4
I12
tp831
I1
tp832
a((I135
I134
tp833
(I2
I12
tp834
I1
tp835
a((I133
I144
tp836
(I1
I13
tp837
I1
tp838
a((I133
I134
tp839
(I2
I12
tp840
I1
tp841
a((I133
I132
tp842
(I0
I12
tp843
I1
tp844
a((I140
I151
tp845
(I8
I13
tp846
I1
tp847
a((I140
I141
tp848
(I9
I12
tp849
I1
tp850
a((I140
I139
tp851
(I7
I12
tp852
I1
tp853
a((I169
I180
tp854
(I4
I16
tp855
I1
tp856
a((I14
I25
tp857
(I3
I2
tp858
I1
tp859
a((I123
I134
tp860
(I2
I12
tp861
I1
tp862
a((I108
I119
tp863
(I9
I10
tp864
I1
tp865
a((I159
I170
tp866
(I5
I15
tp867
I1
tp868
a((I201
I212
tp869
(I3
I19
tp870
I1
tp871
a((I164
I175
tp872
(I10
I15
tp873
I1
tp874
a((I206
I217
tp875
(I8
I19
tp876
I1
tp877
a((I149
I160
tp878
(I6
I14
tp879
I1
tp880
a((I95
I106
tp881
(I7
I9
tp882
I1
tp883
a((I95
I96
tp884
(I8
I8
tp885
I1
tp886
a((I95
I94
tp887
(I6
I8
tp888
I1
tp889
a((I182
I193
tp890
(I6
I17
tp891
I1
tp892
a((I182
I183
tp893
(I7
I16
tp894
I1
tp895
a((I182
I181
tp896
(I5
I16
tp897
I1
tp898
a((I200
I211
tp899
(I2
I19
tp900
I1
tp901
a((I154
I165
tp902
(I0
I15
tp903
I1
tp904
a((I124
I135
tp905
(I3
I12
tp906
I1
tp907
a((I13
I24
tp908
(I2
I2
tp909
I1
tp910
a((I166
I177
tp911
(I1
I16
tp912
I1
tp913
a((I107
I118
tp914
(I8
I10
tp915
I1
tp916
a((I136
I147
tp917
(I4
I13
tp918
I1
tp919
a((I136
I137
tp920
(I5
I12
tp921
I1
tp922
a((I136
I135
tp923
(I3
I12
tp924
I1
tp925
a((I134
I145
tp926
(I2
I13
tp927
I1
tp928
a((I134
I135
tp929
(I3
I12
tp930
I1
tp931
a((I134
I133
tp932
(I1
I12
tp933
I1
tp934
a((I53
I64
tp935
(I9
I5
tp936
I1
tp937
a((I53
I54
tp938
(I10
I4
tp939
I1
tp940
a((I53
I52
tp941
(I8
I4
tp942
I1
tp943
a((I16
I27
tp944
(I5
I2
tp945
I1
tp946
a((I190
I201
tp947
(I3
I18
tp948
I1
tp949
a((I43
I54
tp950
(I10
I4
tp951
I1
tp952
a((I29
I40
tp953
(I7
I3
tp954
I1
tp955
a((I160
I171
tp956
(I6
I15
tp957
I1
tp958
a((I172
I183
tp959
(I7
I16
tp960
I1
tp961
a((I177
I188
tp962
(I1
I17
tp963
I1
tp964
a((I177
I178
tp965
(I2
I16
tp966
I1
tp967
a((I177
I176
tp968
(I0
I16
tp969
I1
tp970
a((I56
I67
tp971
(I1
I6
tp972
I1
tp973
a((I121
I132
tp974
(I0
I12
tp975
I1
tp976
a((I69
I80
tp977
(I3
I7
tp978
I1
tp979
a((I24
I35
tp980
(I2
I3
tp981
I1
tp982
a((I111
I122
tp983
(I1
I11
tp984
I1
tp985
a((I74
I85
tp986
(I8
I7
tp987
I1
tp988
a((I15
I26
tp989
(I4
I2
tp990
I1
tp991
a((I109
I120
tp992
(I10
I10
tp993
I1
tp994
a((I86
I97
tp995
(I9
I8
tp996
I1
tp997
a((I50
I61
tp998
(I6
I5
tp999
I1
tp1000
a((I50
I51
tp1001
(I7
I4
tp1002
I1
tp1003
a((I50
I49
tp1004
(I5
I4
tp1005
I1
tp1006
a((I49
I60
tp1007
(I5
I5
tp1008
I1
tp1009
a((I49
I50
tp1010
(I6
I4
tp1011
I1
tp1012
a((I49
I48
tp1013
(I4
I4
tp1014
I1
tp1015
a((I54
I65
tp1016
(I10
I5
tp1017
I1
tp1018
a((I54
I53
tp1019
(I9
I4
tp1020
I1
tp1021
a((I18
I29
tp1022
(I7
I2
tp1023
I1
tp1024
a((I127
I138
tp1025
(I6
I12
tp1026
I1
tp1027
a((I192
I203
tp1028
(I5
I18
tp1029
I1
tp1030
a((I198
I209
tp1031
(I0
I19
tp1032
I1
tp1033
a((I205
I216
tp1034
(I7
I19
tp1035
I1
tp1036
a((I55
I66
tp1037
(I0
I6
tp1038
I1
tp1039
a((I1
I12
tp1040
(I1
I1
tp1041
I1
tp1042
a((I88
I99
tp1043
(I0
I9
tp1044
I1
tp1045
a((I88
I89
tp1046
(I1
I8
tp1047
I1
tp1048
a((I125
I136
tp1049
(I4
I12
tp1050
I1
tp1051
a((I58
I69
tp1052
(I3
I6
tp1053
I1
tp1054
a((I79
I90
tp1055
(I2
I8
tp1056
I1
tp1057
a((I152
I163
tp1058
(I9
I14
tp1059
I1
tp1060
a((I41
I52
tp1061
(I8
I4
tp1062
I1
tp1063
a((I115
I126
tp1064
(I5
I11
tp1065
I1
tp1066
a((I70
I81
tp1067
(I4
I7
tp1068
I1
tp1069
a((I120
I131
tp1070
(I10
I11
tp1071
I1
tp1072
a((I31
I42
tp1073
(I9
I3
tp1074
I1
tp1075
a((I17
I28
tp1076
(I6
I2
tp1077
I1
tp1078
a((I82
I93
tp1079
(I5
I8
tp1080
I1
tp1081
a((I191
I202
tp1082
(I4
I18
tp1083
I1
tp1084
a((I51
I62
tp1085
(I7
I5
tp1086
I1
tp1087
a((I51
I52
tp1088
(I8
I4
tp1089
I1
tp1090
a((I51
I50
tp1091
(I6
I4
tp1092
I1
tp1093
a((I194
I205
tp1094
(I7
I18
tp1095
I1
tp1096
a((I22
I33
tp1097
(I0
I3
tp1098
I1
tp1099
a((I168
I179
tp1100
(I3
I16
tp1101
I1
tp1102
a((I34
I45
tp1103
(I1
I4
tp1104
I1
tp1105
a((I151
I162
tp1106
(I8
I14
tp1107
I1
tp1108
a((I92
I103
tp1109
(I4
I9
tp1110
I1
tp1111
a((I92
I93
tp1112
(I5
I8
tp1113
I1
tp1114
a((I92
I91
tp1115
(I3
I8
tp1116
I1
tp1117
a((I3
I14
tp1118
(I3
I1
tp1119
I1
tp1120
a((I90
I101
tp1121
(I2
I9
tp1122
I1
tp1123
a((I90
I91
tp1124
(I3
I8
tp1125
I1
tp1126
a((I90
I89
tp1127
(I1
I8
tp1128
I1
tp1129
a((I97
I108
tp1130
(I9
I9
tp1131
I1
tp1132
a((I97
I98
tp1133
(I10
I8
tp1134
I1
tp1135
a((I97
I96
tp1136
(I8
I8
tp1137
I1
tp1138
a((I8
I19
tp1139
(I8
I1
tp1140
I1
tp1141
a((I148
I159
tp1142
(I5
I14
tp1143
I1
tp1144
a((I175
I186
tp1145
(I10
I16
tp1146
I1
tp1147
a((I28
I39
tp1148
(I6
I3
tp1149
I1
tp1150
a((I207
I218
tp1151
(I9
I19
tp1152
I1
tp1153
a((I128
I139
tp1154
(I7
I12
tp1155
I1
tp1156
a((I193
I204
tp1157
(I6
I18
tp1158
I1
tp1159
a((I165
I176
tp1160
(I0
I16
tp1161
I1
tp1162
a((I113
I124
tp1163
(I3
I11
tp1164
I1
tp1165
a((I155
I166
tp1166
(I1
I15
tp1167
I1
tp1168
a((I118
I129
tp1169
(I8
I11
tp1170
I1
tp1171
a((I147
I158
tp1172
(I4
I14
tp1173
I1
tp1174
a((I145
I156
tp1175
(I2
I14
tp1176
I1
tp1177
a((I130
I141
tp1178
(I9
I12
tp1179
I1
tp1180
a((I5
I16
tp1181
(I5
I1
tp1182
I1
tp1183
a((I179
I190
tp1184
(I3
I17
tp1185
I1
tp1186
a((I179
I180
tp1187
(I4
I16
tp1188
I1
tp1189
a((I179
I178
tp1190
(I2
I16
tp1191
I1
tp1192
a((I10
I21
tp1193
(I10
I1
tp1194
I1
tp1195
a((I184
I195
tp1196
(I8
I17
tp1197
I1
tp1198
a((I184
I185
tp1199
(I9
I16
tp1200
I1
tp1201
a((I184
I183
tp1202
(I7
I16
tp1203
I1
tp1204
a((I171
I182
tp1205
(I6
I16
tp1206
I1
tp1207
a((I161
I172
tp1208
(I7
I15
tp1209
I1
tp1210
a((I204
I215
tp1211
(I6
I19
tp1212
I1
tp1213
a((I45
I56
tp1214
(I1
I5
tp1215
I1
tp1216
a((I45
I46
tp1217
(I2
I4
tp1218
I1
tp1219
a((I45
I44
tp1220
(I0
I4
tp1221
I1
tp1222
a((I132
I143
tp1223
(I0
I13
tp1224
I1
tp1225
a((I132
I133
tp1226
(I1
I12
tp1227
I1
tp1228
a((I102
I113
tp1229
(I3
I10
tp1230
I1
tp1231
a((I35
I46
tp1232
(I2
I4
tp1233
I1
tp1234
a((I100
I111
tp1235
(I1
I10
tp1236
I1
tp1237
a((I85
I96
tp1238
(I8
I8
tp1239
I1
tp1240
a((I26
I37
tp1241
(I4
I3
tp1242
I1
tp1243
a((I156
I167
tp1244
(I2
I15
tp1245
I1
tp1246
a((I75
I86
tp1247
(I9
I7
tp1248
I1
tp1249
a((I61
I72
tp1250
(I6
I6
tp1251
I1
tp1252
a((I38
I49
tp1253
(I5
I4
tp1254
I1
tp1255
a((I65
I76
tp1256
(I10
I6
tp1257
I1
tp1258
a((I7
I18
tp1259
(I7
I1
tp1260
I1
tp1261
a((I94
I105
tp1262
(I6
I9
tp1263
I1
tp1264
a((I94
I95
tp1265
(I7
I8
tp1266
I1
tp1267
a((I94
I93
tp1268
(I5
I8
tp1269
I1
tp1270
a((I181
I192
tp1271
(I5
I17
tp1272
I1
tp1273
a((I181
I182
tp1274
(I6
I16
tp1275
I1
tp1276
a((I181
I180
tp1277
(I4
I16
tp1278
I1
tp1279
a((I186
I197
tp1280
(I10
I17
tp1281
I1
tp1282
a((I186
I185
tp1283
(I9
I16
tp1284
I1
tp1285
a((I150
I161
tp1286
(I7
I14
tp1287
I1
tp1288
a((I199
I210
tp1289
(I1
I19
tp1290
I1
tp1291
a((I66
I77
tp1292
(I0
I7
tp1293
I1
tp1294
a((I78
I89
tp1295
(I1
I8
tp1296
I1
tp1297
a((I99
I110
tp1298
(I0
I10
tp1299
I1
tp1300
a((I47
I58
tp1301
(I3
I5
tp1302
I1
tp1303
a((I47
I48
tp1304
(I4
I4
tp1305
I1
tp1306
a((I47
I46
tp1307
(I2
I4
tp1308
I1
tp1309
a((I46
I57
tp1310
(I2
I5
tp1311
I1
tp1312
a((I46
I47
tp1313
(I3
I4
tp1314
I1
tp1315
a((I46
I45
tp1316
(I1
I4
tp1317
I1
tp1318
a((I141
I152
tp1319
(I9
I13
tp1320
I1
tp1321
a((I141
I142
tp1322
(I10
I12
tp1323
I1
tp1324
a((I141
I140
tp1325
(I8
I12
tp1326
I1
tp1327
a((I52
I63
tp1328
(I8
I5
tp1329
I1
tp1330
a((I52
I53
tp1331
(I9
I4
tp1332
I1
tp1333
a((I52
I51
tp1334
(I7
I4
tp1335
I1
tp1336
a((I104
I115
tp1337
(I5
I10
tp1338
I1
tp1339
a((I81
I92
tp1340
(I4
I8
tp1341
I1
tp1342
a((I131
I142
tp1343
(I10
I12
tp1344
I1
tp1345
a((I20
I31
tp1346
(I9
I2
tp1347
I1
tp1348
a((I72
I83
tp1349
(I6
I7
tp1350
I1
tp1351
a((I71
I82
tp1352
(I5
I7
tp1353
I1
tp1354
a((I202
I213
tp1355
(I4
I19
tp1356
I1
tp1357
a((I76
I87
tp1358
(I10
I7
tp1359
I1
tp1360
a((I84
I95
tp1361
(I7
I8
tp1362
I1
tp1363
a((I176
I187
tp1364
(I0
I17
tp1365
I1
tp1366
a((I176
I177
tp1367
(I1
I16
tp1368
I1
tp1369
a((I183
I194
tp1370
(I7
I17
tp1371
I1
tp1372
a((I183
I184
tp1373
(I8
I16
tp1374
I1
tp1375
a((I183
I182
tp1376
(I6
I16
tp1377
I1
tp1378
a((I33
I44
tp1379
(I0
I4
tp1380
I1
tp1381
a((I157
I168
tp1382
(I3
I15
tp1383
I1
tp1384
a((I23
I34
tp1385
(I1
I3
tp1386
I1
tp1387
a((I162
I173
tp1388
(I8
I15
tp1389
I1
tp1390
a((I103
I114
tp1391
(I4
I10
tp1392
I1
tp1393
a((I36
I47
tp1394
(I3
I4
tp1395
I1
tp1396
a((I101
I112
tp1397
(I2
I10
tp1398
I1
tp1399
a((I174
I185
tp1400
(I9
I16
tp1401
I1
tp1402
a((I19
I30
tp1403
(I8
I2
tp1404
I1
tp1405
a((I137
I148
tp1406
(I5
I13
tp1407
I1
tp1408
a((I137
I138
tp1409
(I6
I12
tp1410
I1
tp1411
a((I137
I136
tp1412
(I4
I12
tp1413
I1
tp1414
a((I48
I59
tp1415
(I4
I5
tp1416
I1
tp1417
a((I48
I49
tp1418
(I5
I4
tp1419
I1
tp1420
a((I48
I47
tp1421
(I3
I4
tp1422
I1
tp1423
a((I142
I153
tp1424
(I10
I13
tp1425
I1
tp1426
a((I142
I141
tp1427
(I9
I12
tp1428
I1
tp1429
a((I39
I50
tp1430
(I6
I4
tp1431
I1
tp1432
a((I196
I207
tp1433
(I9
I18
tp1434
I1
tp1435
a((I117
I128
tp1436
(I7
I11
tp1437
I1
tp1438
a((I178
I189
tp1439
(I2
I17
tp1440
I1
tp1441
a((I178
I179
tp1442
(I3
I16
tp1443
I1
tp1444
a((I178
I177
tp1445
(I1
I16
tp1446
I1
tp1447
a((I0
I11
tp1448
(I0
I1
tp1449
I1
tp1450
a((I146
I157
tp1451
(I3
I14
tp1452
I1
tp1453
a((I144
I155
tp1454
(I1
I14
tp1455
I1
tp1456
a((I129
I140
tp1457
(I8
I12
tp1458
I1
tp1459
a((I158
I169
tp1460
(I4
I15
tp1461
I1
tp1462
a((I112
I123
tp1463
(I2
I11
tp1464
I1
tp1465
a((I119
I130
tp1466
(I9
I11
tp1467
I1
tp1468
a((I170
I181
tp1469
(I5
I16
tp1470
I1
tp1471
a((I21
I32
tp1472
(I10
I2
tp1473
I1
tp1474
a((I195
I206
tp1475
(I8
I18
tp1476
I1
tp1477
a((I138
I149
tp1478
(I6
I13
tp1479
I1
tp1480
a((I138
I139
tp1481
(I7
I12
tp1482
I1
tp1483
a((I138
I137
tp1484
(I5
I12
tp1485
I1
tp1486
a((I106
I117
tp1487
(I7
I10
tp1488
I1
tp1489
a((I143
I154
tp1490
(I0
I14
tp1491
I1
tp1492
a((I91
I102
tp1493
(I3
I9
tp1494
I1
tp1495
a((I91
I92
tp1496
(I4
I8
tp1497
I1
tp1498
a((I91
I90
tp1499
(I2
I8
tp1500
I1
tp1501
a((I2
I13
tp1502
(I2
I1
tp1503
I1
tp1504
a((I89
I100
tp1505
(I1
I9
tp1506
I1
tp1507
a((I89
I90
tp1508
(I2
I8
tp1509
I1
tp1510
a((I89
I88
tp1511
(I0
I8
tp1512
I1
tp1513
a((I96
I107
tp1514
(I8
I9
tp1515
I1
tp1516
a((I96
I97
tp1517
(I9
I8
tp1518
I1
tp1519
a((I96
I95
tp1520
(I7
I8
tp1521
I1
tp1522
a((I37
I48
tp1523
(I4
I4
tp1524
I1
tp1525
a((I167
I178
tp1526
(I2
I16
tp1527
I1
tp1528
a((I64
I75
tp1529
(I9
I6
tp1530
I1
tp1531
a((I27
I38
tp1532
(I5
I3
tp1533
I1
tp1534
a((I32
I43
tp1535
(I10
I3
tp1536
I1
tp1537
asS'goals'
p1538
(lp1539
I209
aI210
aI211
aI212
aI213
aI214
aI215
aI216
aI217
aI218
aI219
asS'actionNum'
p1540
I4
stp1541
a((lp1542
I6
aI17
aI28
aI39
aI50
aI61
aI72
aI83
aI94
aI105
aI116
aI127
aI138
aI149
aI160
aI171
aI182
aI193
aI204
aI215
ag3
tp1543
a((lp1544
I5
aI16
aI27
aI38
aI49
aI60
aI71
aI82
aI93
aI104
aI115
aI126
aI137
aI148
aI159
aI170
aI181
aI192
aI203
aI214
ag3
tp1545
a((lp1546
I4
aI15
aI26
aI37
aI48
aI59
aI70
aI81
aI92
aI91
aI102
aI113
aI124
aI135
aI146
aI157
aI168
aI179
aI190
aI201
aI212
ag3
tp1547
a((lp1548
I5
aI16
aI27
aI38
aI49
aI50
aI51
aI62
aI73
aI84
aI95
aI106
aI117
aI128
aI139
aI150
aI161
aI172
aI183
aI194
aI205
aI216
ag3
tp1549
a((lp1550
I2
aI13
aI24
aI35
aI46
aI57
aI68
aI79
aI90
aI101
aI112
aI123
aI134
aI135
aI146
aI157
aI168
aI179
aI190
aI201
aI212
ag3
tp1551
a((lp1552
I5
aI16
aI27
aI38
aI49
aI50
aI51
aI62
aI73
aI84
aI95
aI96
aI107
aI118
aI129
aI140
aI151
aI162
aI173
aI184
aI195
aI206
aI217
ag3
tp1553
a((lp1554
I0
aI11
aI22
aI33
aI44
aI45
aI56
aI67
aI78
aI89
aI90
aI101
aI112
aI123
aI134
aI135
aI136
aI137
aI138
aI139
aI140
aI141
aI152
aI163
aI174
aI185
aI196
aI207
aI218
ag3
tp1555
aa(lp1556
((lp1557
I0
aI11
aI22
aI33
aI44
aI45
aI46
aI47
aI48
aI59
aI70
aI81
aI92
aI93
aI104
aI115
aI126
aI137
aI138
aI139
aI140
aI141
aI152
aI163
aI174
aI185
aI196
aI207
aI218
ag3
tp1558
a((lp1559
I5
aI16
aI27
aI38
aI49
aI60
aI71
aI82
aI93
aI104
aI115
aI126
aI137
aI138
aI149
aI160
aI171
aI182
aI193
aI204
aI215
ag3
tp1560
a((lp1561
I5
aI16
aI27
aI38
aI49
aI60
aI71
aI82
aI93
aI104
aI115
aI126
aI137
aI148
aI159
aI170
aI181
aI180
aI191
aI202
aI213
ag3
tp1562
a((lp1563
I5
aI16
aI27
aI38
aI49
aI60
aI71
aI82
aI93
aI104
aI115
aI126
aI137
aI136
aI147
aI158
aI169
aI180
aI191
aI202
aI213
ag3
tp1564
a((lp1565
I7
aI18
aI29
aI40
aI51
aI62
aI73
aI84
aI95
aI94
aI93
aI104
aI115
aI126
aI137
aI136
aI135
aI146
aI157
aI168
aI179
aI178
aI177
aI176
aI187
aI198
aI209
ag3
tp1566
a((lp1567
I0
aI11
aI22
aI33
aI44
aI45
aI56
aI67
aI78
aI89
aI90
aI91
aI92
aI93
aI104
aI115
aI126
aI137
aI148
aI159
aI170
aI181
aI192
aI203
aI214
ag3
tp1568
a((lp1569
I5
aI16
aI27
aI38
aI49
aI60
aI71
aI82
aI93
aI104
aI115
aI126
aI137
aI136
aI135
aI146
aI157
aI168
aI179
aI178
aI177
aI176
aI187
aI198
aI209
ag3
tp1570
a((lp1571
I7
aI18
aI29
aI40
aI51
aI62
aI73
aI84
aI95
aI94
aI93
aI104
aI115
aI126
aI137
aI136
aI147
aI158
aI169
aI180
aI191
aI202
aI213
ag3
tp1572
aa(lp1573
((lp1574
I6
aI17
aI28
aI39
aI50
aI61
aI72
aI83
aI94
aI93
aI104
aI115
aI126
aI137
aI138
aI139
aI140
aI141
aI152
aI163
aI174
aI185
aI196
aI207
aI218
ag3
tp1575
a((lp1576
I0
aI11
aI22
aI33
aI44
aI45
aI46
aI47
aI48
aI59
aI70
aI81
aI92
aI93
aI104
aI115
aI126
aI137
aI136
aI147
aI158
aI169
aI180
aI191
aI202
aI213
ag3
tp1577
a((lp1578
I0
aI11
aI22
aI33
aI44
aI45
aI56
aI67
aI78
aI89
aI90
aI91
aI92
aI93
aI104
aI115
aI126
aI137
aI136
aI147
aI158
aI169
aI180
aI191
aI202
aI213
ag3
tp1579
a((lp1580
I0
aI11
aI22
aI33
aI44
aI45
aI56
aI67
aI78
aI89
aI90
aI91
aI92
aI93
aI104
aI115
aI126
aI137
aI148
aI159
aI170
aI181
aI180
aI191
aI202
aI213
ag3
tp1581
a((lp1582
I6
aI17
aI28
aI39
aI50
aI61
aI72
aI83
aI94
aI93
aI104
aI115
aI126
aI137
aI138
aI149
aI160
aI171
aI182
aI193
aI204
aI215
ag3
tp1583
a((lp1584
I7
aI18
aI29
aI40
aI51
aI62
aI73
aI84
aI95
aI94
aI93
aI104
aI115
aI126
aI137
aI138
aI149
aI160
aI171
aI182
aI193
aI204
aI215
ag3
tp1585
a((lp1586
I0
aI11
aI22
aI33
aI44
aI45
aI46
aI47
aI48
aI59
aI70
aI81
aI92
aI93
aI104
aI115
aI126
aI137
aI136
aI135
aI146
aI157
aI168
aI179
aI178
aI177
aI176
aI187
aI198
aI209
ag3
tp1587
a((lp1588
I0
aI11
aI22
aI33
aI44
aI45
aI46
aI47
aI48
aI59
aI70
aI81
aI92
aI93
aI104
aI115
aI126
aI137
aI148
aI159
aI170
aI181
aI180
aI191
aI202
aI213
ag3
tp1589
aa(lp1590
((lp1591
I3
aI14
aI25
aI36
aI47
aI48
aI59
aI70
aI81
aI92
aI93
aI94
aI95
aI96
aI107
aI118
aI129
aI140
aI141
aI152
aI163
aI174
aI185
aI196
aI207
aI218
ag3
tp1592
a((lp1593
I2
aI13
aI24
aI35
aI46
aI47
aI48
aI59
aI70
aI81
aI92
aI93
aI94
aI95
aI96
aI107
aI118
aI129
aI140
aI151
aI162
aI173
aI184
aI195
aI206
aI217
ag3
tp1594
a((lp1595
I0
aI11
aI22
aI33
aI44
aI45
aI46
aI47
aI48
aI59
aI70
aI81
aI92
aI93
aI94
aI95
aI96
aI107
aI118
aI129
aI140
aI141
aI152
aI163
aI174
aI185
aI196
aI207
aI218
ag3
tp1596
a((lp1597
I2
aI13
aI24
aI35
aI46
aI47
aI48
aI59
aI70
aI81
aI92
aI93
aI94
aI95
aI96
aI107
aI118
aI129
aI140
aI141
aI152
aI163
aI174
aI185
aI196
aI207
aI218
ag3
tp1598
a((lp1599
I1
aI12
aI23
aI34
aI45
aI46
aI47
aI48
aI59
aI70
aI81
aI92
aI93
aI94
aI95
aI96
aI107
aI118
aI129
aI140
aI141
aI152
aI163
aI174
aI185
aI196
aI207
aI218
ag3
tp1600
a((lp1601
I1
aI12
aI23
aI34
aI45
aI46
aI47
aI48
aI59
aI70
aI81
aI92
aI93
aI94
aI95
aI96
aI107
aI118
aI129
aI140
aI151
aI162
aI173
aI184
aI195
aI206
aI217
ag3
tp1602
a((lp1603
I3
aI14
aI25
aI36
aI47
aI48
aI59
aI70
aI81
aI92
aI93
aI94
aI95
aI96
aI107
aI118
aI129
aI140
aI151
aI162
aI173
aI184
aI195
aI206
aI217
ag3
tp1604
a((lp1605
I0
aI11
aI22
aI33
aI44
aI45
aI46
aI47
aI48
aI59
aI70
aI81
aI92
aI93
aI94
aI95
aI96
aI107
aI118
aI129
aI140
aI151
aI162
aI173
aI184
aI195
aI206
aI217
ag3
tp1606
aa(lp1607
((lp1608
I6
aI17
aI28
aI39
aI50
aI49
aI48
aI59
aI70
aI81
aI92
aI93
aI94
aI95
aI96
aI107
aI118
aI129
aI140
aI141
aI152
aI163
aI174
aI185
aI196
aI207
aI218
ag3
tp1609
a((lp1610
I5
aI16
aI27
aI38
aI49
aI48
aI59
aI70
aI81
aI92
aI93
aI94
aI95
aI96
aI107
aI118
aI129
aI140
aI139
aI138
aI137
aI136
aI135
aI146
aI157
aI168
aI179
aI178
aI177
aI176
aI187
aI198
aI209
ag3
tp1611
a((lp1612
I6
aI17
aI28
aI39
aI50
aI49
aI48
aI59
aI70
aI81
aI92
aI93
aI94
aI95
aI96
aI107
aI118
aI129
aI140
aI139
aI150
aI161
aI172
aI183
aI194
aI205
aI216
ag3
tp1613
a((lp1614
I6
aI17
aI28
aI39
aI50
aI49
aI48
aI59
aI70
aI81
aI92
aI93
aI94
aI95
aI96
aI107
aI118
aI129
aI140
aI151
aI162
aI173
aI184
aI195
aI206
aI217
ag3
tp1615
a((lp1616
I6
aI17
aI28
aI39
aI50
aI49
aI48
aI59
aI70
aI81
aI92
aI93
aI94
aI95
aI96
aI107
aI118
aI129
aI140
aI139
aI138
aI149
aI160
aI171
aI182
aI181
aI180
aI179
aI178
aI177
aI176
aI187
aI198
aI209
ag3
tp1617
a((lp1618
I0
aI11
aI22
aI33
aI44
aI45
aI46
aI47
aI48
aI59
aI70
aI81
aI92
aI93
aI94
aI95
aI96
aI107
aI118
aI129
aI140
aI139
aI138
aI137
aI136
aI135
aI146
aI157
aI168
aI179
aI178
aI177
aI176
aI187
aI198
aI209
ag3
tp1619
a((lp1620
I5
aI16
aI27
aI38
aI49
aI48
aI59
aI70
aI81
aI92
aI93
aI94
aI95
aI96
aI107
aI118
aI129
aI140
aI151
aI162
aI173
aI184
aI195
aI206
aI217
ag3
tp1621
a((lp1622
I5
aI16
aI27
aI38
aI49
aI48
aI59
aI70
aI81
aI92
aI93
aI94
aI95
aI96
aI107
aI118
aI129
aI140
aI139
aI150
aI161
aI172
aI183
aI194
aI205
aI216
ag3
tp1623
aa(lp1624
((lp1625
I0
aI11
aI22
aI33
aI44
aI45
aI46
aI47
aI48
aI59
aI70
aI81
aI92
aI93
aI104
aI115
aI126
aI137
aI138
aI149
aI160
aI171
aI182
aI193
aI204
aI215
ag3
tp1626
a((lp1627
I2
aI13
aI24
aI35
aI46
aI47
aI48
aI59
aI70
aI81
aI92
aI93
aI104
aI115
aI126
aI137
aI138
aI149
aI160
aI171
aI182
aI183
aI194
aI205
aI216
ag3
tp1628
a((lp1629
I2
aI13
aI24
aI35
aI46
aI47
aI48
aI59
aI70
aI81
aI92
aI93
aI104
aI115
aI126
aI137
aI138
aI149
aI160
aI171
aI182
aI193
aI204
aI215
ag3
tp1630
a((lp1631
I0
aI11
aI22
aI33
aI44
aI45
aI46
aI47
aI48
aI59
aI70
aI81
aI92
aI93
aI104
aI115
aI126
aI137
aI138
aI149
aI160
aI171
aI182
aI183
aI194
aI205
aI216
ag3
tp1632
a((lp1633
I3
aI14
aI25
aI36
aI47
aI48
aI59
aI70
aI81
aI92
aI93
aI104
aI115
aI126
aI137
aI138
aI149
aI160
aI171
aI182
aI193
aI204
aI215
ag3
tp1634
a((lp1635
I4
aI15
aI26
aI37
aI48
aI59
aI70
aI81
aI92
aI93
aI104
aI115
aI126
aI137
aI138
aI149
aI160
aI171
aI182
aI193
aI204
aI215
ag3
tp1636
a((lp1637
I1
aI12
aI23
aI34
aI45
aI46
aI47
aI48
aI59
aI70
aI81
aI92
aI93
aI104
aI115
aI126
aI137
aI138
aI149
aI160
aI171
aI182
aI183
aI194
aI205
aI216
ag3
tp1638
a((lp1639
I1
aI12
aI23
aI34
aI45
aI46
aI47
aI48
aI59
aI70
aI81
aI92
aI93
aI104
aI115
aI126
aI137
aI138
aI149
aI160
aI171
aI182
aI193
aI204
aI215
ag3
tp1640
aa(lp1641
((lp1642
I5
aI16
aI27
aI38
aI49
aI48
aI59
aI70
aI81
aI92
aI93
aI104
aI115
aI126
aI137
aI138
aI149
aI160
aI171
aI182
aI183
aI194
aI205
aI216
ag3
tp1643
a((lp1644
I6
aI17
aI28
aI39
aI50
aI49
aI48
aI59
aI70
aI81
aI92
aI93
aI104
aI115
aI126
aI137
aI138
aI149
aI160
aI171
aI182
aI181
aI180
aI179
aI178
aI177
aI176
aI187
aI198
aI209
ag3
tp1645
a((lp1646
I1
aI12
aI23
aI34
aI45
aI46
aI47
aI48
aI59
aI70
aI81
aI92
aI93
aI104
aI115
aI126
aI137
aI138
aI149
aI160
aI171
aI182
aI181
aI180
aI179
aI178
aI177
aI176
aI187
aI198
aI209
ag3
tp1647
a((lp1648
I6
aI17
aI28
aI39
aI50
aI49
aI48
aI59
aI70
aI81
aI92
aI93
aI104
aI115
aI126
aI137
aI138
aI149
aI160
aI171
aI182
aI193
aI204
aI215
ag3
tp1649
a((lp1650
I5
aI16
aI27
aI38
aI49
aI48
aI59
aI70
aI81
aI92
aI93
aI104
aI115
aI126
aI137
aI138
aI149
aI160
aI171
aI182
aI193
aI204
aI215
ag3
tp1651
a((lp1652
I0
aI11
aI22
aI33
aI44
aI45
aI46
aI47
aI48
aI59
aI70
aI81
aI92
aI93
aI104
aI115
aI126
aI137
aI138
aI149
aI160
aI171
aI182
aI181
aI180
aI179
aI178
aI177
aI176
aI187
aI198
aI209
ag3
tp1653
a((lp1654
I7
aI18
aI29
aI40
aI51
aI50
aI49
aI48
aI59
aI70
aI81
aI92
aI93
aI104
aI115
aI126
aI137
aI138
aI149
aI160
aI171
aI182
aI181
aI180
aI179
aI178
aI177
aI176
aI187
aI198
aI209
ag3
tp1655
a((lp1656
I5
aI16
aI27
aI38
aI49
aI48
aI59
aI70
aI81
aI92
aI93
aI104
aI115
aI126
aI137
aI138
aI149
aI160
aI171
aI182
aI181
aI180
aI179
aI178
aI177
aI176
aI187
aI198
aI209
ag3
tp1657
aa(lp1658
((lp1659
I0
aI11
aI22
aI33
aI44
aI45
aI56
aI67
aI78
aI89
aI90
aI91
aI92
aI93
aI94
aI95
aI96
aI107
aI118
aI129
aI140
aI139
aI138
aI149
aI160
aI171
aI182
aI181
aI180
aI179
aI178
aI177
aI176
aI187
aI198
aI209
ag3
tp1660
a((lp1661
I1
aI12
aI23
aI34
aI45
aI56
aI67
aI78
aI89
aI90
aI91
aI92
aI93
aI94
aI95
aI96
aI107
aI118
aI129
aI140
aI139
aI138
aI149
aI160
aI171
aI182
aI181
aI180
aI179
aI190
aI201
aI212
ag3
tp1662
a((lp1663
I1
aI12
aI23
aI34
aI45
aI56
aI67
aI78
aI89
aI90
aI91
aI92
aI93
aI94
aI95
aI96
aI107
aI118
aI129
aI140
aI139
aI138
aI149
aI160
aI171
aI182
aI181
aI180
aI179
aI178
aI177
aI176
aI187
aI198
aI209
ag3
tp1664
a((lp1665
I0
aI11
aI22
aI33
aI44
aI45
aI56
aI67
aI78
aI89
aI90
aI91
aI92
aI93
aI94
aI95
aI96
aI107
aI118
aI129
aI140
aI139
aI138
aI149
aI160
aI171
aI182
aI181
aI180
aI179
aI190
aI201
aI212
ag3
tp1666
a((lp1667
I0
aI11
aI22
aI33
aI44
aI45
aI56
aI67
aI78
aI89
aI90
aI91
aI92
aI93
aI94
aI95
aI96
aI107
aI118
aI129
aI140
aI139
aI138
aI149
aI160
aI171
aI182
aI181
aI180
aI179
aI178
aI177
aI188
aI199
aI210
ag3
tp1668
a((lp1669
I1
aI12
aI23
aI34
aI45
aI56
aI67
aI78
aI89
aI90
aI91
aI92
aI93
aI94
aI95
aI96
aI107
aI118
aI129
aI140
aI139
aI138
aI149
aI160
aI171
aI182
aI181
aI180
aI179
aI178
aI189
aI200
aI211
ag3
tp1670
a((lp1671
I1
aI12
aI23
aI34
aI45
aI56
aI67
aI78
aI89
aI90
aI91
aI92
aI93
aI94
aI95
aI96
aI107
aI118
aI129
aI140
aI139
aI138
aI149
aI160
aI171
aI182
aI181
aI180
aI179
aI178
aI177
aI188
aI199
aI210
ag3
tp1672
a((lp1673
I0
aI11
aI22
aI33
aI44
aI45
aI56
aI67
aI78
aI89
aI90
aI91
aI92
aI93
aI94
aI95
aI96
aI107
aI118
aI129
aI140
aI139
aI138
aI149
aI160
aI171
aI182
aI181
aI180
aI179
aI178
aI189
aI200
aI211
ag3
tp1674
aa(lp1675
((lp1676
I4
aI15
aI26
aI37
aI48
aI47
aI46
aI45
aI56
aI67
aI78
aI89
aI90
aI91
aI92
aI93
aI94
aI95
aI96
aI107
aI118
aI129
aI140
aI139
aI138
aI149
aI160
aI171
aI182
aI183
aI194
aI205
aI216
ag3
tp1677
a((lp1678
I2
aI13
aI24
aI35
aI46
aI45
aI56
aI67
aI78
aI89
aI90
aI91
aI92
aI93
aI94
aI95
aI96
aI107
aI118
aI129
aI140
aI139
aI138
aI149
aI160
aI171
aI182
aI183
aI194
aI205
aI216
ag3
tp1679
a((lp1680
I2
aI13
aI24
aI35
aI46
aI45
aI56
aI67
aI78
aI89
aI90
aI91
aI92
aI93
aI94
aI95
aI96
aI107
aI118
aI129
aI140
aI139
aI138
aI149
aI160
aI171
aI182
aI181
aI180
aI179
aI178
aI177
aI176
aI187
aI198
aI209
ag3
tp1681
a((lp1682
I0
aI11
aI22
aI33
aI44
aI45
aI56
aI67
aI78
aI89
aI90
aI91
aI92
aI93
aI94
aI95
aI96
aI107
aI118
aI129
aI140
aI139
aI138
aI149
aI160
aI171
aI182
aI183
aI194
aI205
aI216
ag3
tp1683
a((lp1684
I3
aI14
aI25
aI36
aI47
aI46
aI45
aI56
aI67
aI78
aI89
aI90
aI91
aI92
aI93
aI94
aI95
aI96
aI107
aI118
aI129
aI140
aI139
aI138
aI149
aI160
aI171
aI182
aI183
aI194
aI205
aI216
ag3
tp1685
a((lp1686
I3
aI14
aI25
aI36
aI47
aI46
aI45
aI56
aI67
aI78
aI89
aI90
aI91
aI92
aI93
aI94
aI95
aI96
aI107
aI118
aI129
aI140
aI139
aI138
aI149
aI160
aI171
aI182
aI181
aI180
aI179
aI178
aI177
aI176
aI187
aI198
aI209
ag3
tp1687
a((lp1688
I0
aI11
aI22
aI33
aI44
aI45
aI56
aI67
aI78
aI89
aI90
aI91
aI92
aI93
aI94
aI95
aI96
aI107
aI118
aI129
aI140
aI139
aI138
aI149
aI160
aI171
aI182
aI181
aI180
aI179
aI178
aI177
aI176
aI187
aI198
aI209
ag3
tp1689
a((lp1690
I4
aI15
aI26
aI37
aI48
aI47
aI46
aI45
aI56
aI67
aI78
aI89
aI90
aI91
aI92
aI93
aI94
aI95
aI96
aI107
aI118
aI129
aI140
aI139
aI138
aI149
aI160
aI171
aI182
aI181
aI180
aI179
aI178
aI177
aI176
aI187
aI198
aI209
ag3
tp1691
aa(lp1692
((lp1693
I7
aI18
aI29
aI40
aI51
aI62
aI73
aI84
aI95
aI94
aI93
aI104
aI115
aI126
aI137
aI136
aI147
aI158
aI169
aI180
aI191
aI202
aI213
ag3
tp1694
a((lp1695
I1
aI12
aI23
aI34
aI45
aI56
aI67
aI78
aI89
aI100
aI111
aI122
aI133
aI132
aI143
aI154
aI165
aI176
aI187
aI198
aI209
ag3
tp1696
a((lp1697
I0
aI11
aI22
aI33
aI44
aI45
aI56
aI67
aI78
aI89
aI90
aI101
aI112
aI123
aI134
aI135
aI146
aI157
aI168
aI179
aI190
aI201
aI212
ag3
tp1698
a((lp1699
I7
aI18
aI29
aI40
aI51
aI62
aI73
aI84
aI95
aI94
aI105
aI116
aI127
aI138
aI149
aI160
aI171
aI182
aI193
aI204
aI215
ag3
tp1700
a((lp1701
I0
aI11
aI22
aI33
aI44
aI45
aI46
aI47
aI48
aI49
aI50
aI51
aI62
aI73
aI84
aI95
aI96
aI107
aI118
aI129
aI140
aI141
aI152
aI163
aI174
aI185
aI196
aI207
aI218
ag3
tp1702
a((lp1703
I0
aI11
aI22
aI33
aI44
aI45
aI56
aI67
aI78
aI89
aI90
aI101
aI112
aI123
aI134
aI145
aI156
aI167
aI178
aI189
aI200
aI211
ag3
tp1704
a((lp1705
I1
aI12
aI23
aI34
aI45
aI56
aI67
aI78
aI89
aI88
aI99
aI110
aI121
aI132
aI143
aI154
aI165
aI176
aI187
aI198
aI209
ag3
tp1706
a((lp1707
I3
aI14
aI25
aI36
aI47
aI48
aI49
aI50
aI51
aI62
aI73
aI84
aI95
aI106
aI117
aI128
aI139
aI150
aI161
aI172
aI183
aI194
aI205
aI216
ag3
tp1708
aa(lp1709
((lp1710
I3
aI14
aI25
aI36
aI47
aI48
aI49
aI50
aI51
aI62
aI73
aI84
aI95
aI94
aI105
aI116
aI127
aI138
aI149
aI160
aI171
aI182
aI193
aI204
aI215
ag3
tp1711
a((lp1712
I2
aI13
aI24
aI35
aI46
aI45
aI56
aI67
aI78
aI89
aI90
aI101
aI112
aI123
aI134
aI145
aI156
aI167
aI178
aI189
aI200
aI211
ag3
tp1713
a((lp1714
I6
aI17
aI28
aI39
aI50
aI51
aI62
aI73
aI84
aI95
aI94
aI105
aI116
aI127
aI138
aI149
aI160
aI171
aI182
aI193
aI204
aI215
ag3
tp1715
a((lp1716
I9
aI20
aI31
aI42
aI53
aI52
aI51
aI62
aI73
aI84
aI95
aI96
aI107
aI118
aI129
aI140
aI151
aI162
aI173
aI184
aI195
aI206
aI217
ag3
tp1717
a((lp1718
I3
aI14
aI25
aI36
aI47
aI46
aI45
aI56
aI67
aI78
aI89
aI90
aI101
aI112
aI123
aI134
aI145
aI156
aI167
aI178
aI189
aI200
aI211
ag3
tp1719
a((lp1720
I0
aI11
aI22
aI33
aI44
aI45
aI56
aI67
aI78
aI89
aI88
aI99
aI110
aI121
aI132
aI143
aI154
aI165
aI176
aI187
aI198
aI209
ag3
tp1721
a((lp1722
I5
aI16
aI27
aI38
aI49
aI50
aI51
aI62
aI73
aI84
aI95
aI94
aI93
aI104
aI115
aI126
aI137
aI136
aI135
aI146
aI157
aI168
aI179
aI190
aI201
aI212
ag3
tp1723
a((lp1724
I2
aI13
aI24
aI35
aI46
aI45
aI56
aI67
aI78
aI89
aI90
aI101
aI112
aI123
aI134
aI135
aI146
aI157
aI168
aI179
aI190
aI201
aI212
ag3
tp1725
aa(lp1726
((lp1727
I5
aI16
aI27
aI38
aI49
aI50
aI51
aI62
aI73
aI84
aI95
aI96
aI107
aI118
aI129
aI140
aI151
aI162
aI173
aI184
aI195
aI206
aI217
ag3
tp1728
a((lp1729
I0
aI11
aI22
aI33
aI44
aI45
aI56
aI67
aI78
aI89
aI90
aI101
aI112
aI123
aI134
aI135
aI136
aI137
aI138
aI149
aI160
aI171
aI182
aI193
aI204
aI215
ag3
tp1730
a((lp1731
I6
aI17
aI28
aI39
aI50
aI51
aI62
aI73
aI84
aI95
aI106
aI117
aI128
aI139
aI150
aI161
aI172
aI183
aI194
aI205
aI216
ag3
tp1732
a((lp1733
I5
aI16
aI27
aI38
aI49
aI60
aI71
aI82
aI93
aI104
aI115
aI126
aI137
aI138
aI149
aI160
aI171
aI182
aI193
aI204
aI215
ag3
tp1734
a((lp1735
I7
aI18
aI29
aI40
aI51
aI62
aI73
aI84
aI95
aI94
aI93
aI104
aI115
aI126
aI137
aI136
aI135
aI146
aI157
aI168
aI179
aI178
aI177
aI176
aI187
aI198
aI209
ag3
tp1736
a((lp1737
I7
aI18
aI29
aI40
aI51
aI62
aI73
aI84
aI95
aI94
aI105
aI116
aI127
aI138
aI149
aI160
aI171
aI182
aI181
aI180
aI191
aI202
aI213
ag3
tp1738
a((lp1739
I7
aI18
aI29
aI40
aI51
aI62
aI73
aI84
aI95
aI94
aI105
aI116
aI127
aI138
aI149
aI160
aI171
aI182
aI193
aI204
aI215
ag3
tp1740
a((lp1741
I6
aI17
aI28
aI39
aI50
aI61
aI72
aI83
aI94
aI105
aI116
aI127
aI138
aI149
aI160
aI171
aI182
aI181
aI180
aI191
aI202
aI213
ag3
tp1742
aa(lp1743
((lp1744
I0
aI11
aI22
aI33
aI44
aI45
aI56
aI67
aI78
aI89
aI90
aI101
aI112
aI123
aI134
aI135
aI136
aI137
aI138
aI149
aI160
aI171
aI182
aI181
aI180
aI179
aI178
aI177
aI176
aI187
aI198
aI209
ag3
tp1745
a((lp1746
I6
aI17
aI28
aI39
aI50
aI51
aI62
aI73
aI84
aI95
aI94
aI93
aI104
aI115
aI126
aI137
aI136
aI135
aI146
aI157
aI168
aI179
aI178
aI177
aI176
aI187
aI198
aI209
ag3
tp1747
a((lp1748
I5
aI16
aI27
aI38
aI49
aI60
aI71
aI82
aI93
aI104
aI115
aI126
aI137
aI138
aI149
aI160
aI171
aI182
aI181
aI180
aI179
aI178
aI177
aI188
aI199
aI210
ag3
tp1749
a((lp1750
I9
aI20
aI31
aI42
aI53
aI52
aI51
aI62
aI73
aI84
aI95
aI96
aI107
aI118
aI129
aI140
aI141
aI152
aI163
aI174
aI185
aI196
aI207
aI218
ag3
tp1751
a((lp1752
I8
aI19
aI30
aI41
aI52
aI51
aI62
aI73
aI84
aI95
aI96
aI107
aI118
aI129
aI140
aI151
aI162
aI173
aI184
aI195
aI206
aI217
ag3
tp1753
a((lp1754
I5
aI16
aI27
aI38
aI49
aI60
aI71
aI82
aI93
aI104
aI115
aI126
aI137
aI138
aI149
aI160
aI171
aI182
aI181
aI180
aI179
aI178
aI177
aI176
aI187
aI198
aI209
ag3
tp1755
a((lp1756
I9
aI20
aI31
aI42
aI53
aI52
aI51
aI62
aI73
aI84
aI95
aI96
aI107
aI118
aI129
aI140
aI151
aI162
aI173
aI184
aI195
aI206
aI217
ag3
tp1757
a((lp1758
I0
aI11
aI22
aI33
aI44
aI45
aI46
aI47
aI48
aI59
aI70
aI81
aI92
aI93
aI104
aI115
aI126
aI137
aI138
aI149
aI160
aI171
aI182
aI181
aI180
aI179
aI178
aI177
aI176
aI187
aI198
aI209
ag3
tp1759
aa(lp1760
((lp1761
I2
aI13
aI24
aI35
aI46
aI57
aI68
aI79
aI90
aI101
aI112
aI123
aI134
aI135
aI136
aI137
aI138
aI149
aI160
aI171
aI182
aI193
aI204
aI215
ag3
tp1762
a((lp1763
I6
aI17
aI28
aI39
aI50
aI49
aI60
aI71
aI82
aI93
aI104
aI115
aI126
aI137
aI138
aI139
aI140
aI141
aI152
aI163
aI174
aI185
aI196
aI207
aI218
ag3
tp1764
a((lp1765
I1
aI12
aI23
aI34
aI45
aI56
aI67
aI78
aI89
aI90
aI101
aI112
aI123
aI134
aI135
aI136
aI137
aI138
aI149
aI160
aI171
aI182
aI193
aI204
aI215
ag3
tp1766
a((lp1767
I0
aI11
aI22
aI33
aI44
aI45
aI46
aI47
aI48
aI59
aI70
aI81
aI92
aI93
aI104
aI115
aI126
aI137
aI138
aI139
aI140
aI141
aI152
aI163
aI174
aI185
aI196
aI207
aI218
ag3
tp1768
a((lp1769
I0
aI11
aI22
aI33
aI44
aI45
aI56
aI67
aI78
aI89
aI90
aI101
aI112
aI123
aI134
aI135
aI136
aI137
aI138
aI149
aI160
aI171
aI182
aI193
aI204
aI215
ag3
tp1770
a((lp1771
I3
aI14
aI25
aI36
aI47
aI46
aI57
aI68
aI79
aI90
aI101
aI112
aI123
aI134
aI135
aI136
aI137
aI138
aI149
aI160
aI171
aI182
aI193
aI204
aI215
ag3
tp1772
a((lp1773
I5
aI16
aI27
aI38
aI49
aI60
aI71
aI82
aI93
aI104
aI115
aI126
aI137
aI138
aI139
aI140
aI141
aI152
aI163
aI174
aI185
aI196
aI207
aI218
ag3
tp1774
a((lp1775
I0
aI11
aI22
aI33
aI44
aI45
aI56
aI67
aI78
aI89
aI90
aI91
aI92
aI93
aI104
aI115
aI126
aI137
aI138
aI139
aI140
aI141
aI152
aI163
aI174
aI185
aI196
aI207
aI218
ag3
tp1776
aa(lp1777
((lp1778
I3
aI14
aI25
aI36
aI47
aI58
aI69
aI80
aI91
aI90
aI101
aI112
aI123
aI134
aI135
aI136
aI137
aI138
aI149
aI160
aI171
aI182
aI181
aI180
aI179
aI178
aI177
aI176
aI187
aI198
aI209
ag3
tp1779
a((lp1780
I7
aI18
aI29
aI40
aI51
aI62
aI73
aI84
aI95
aI94
aI93
aI104
aI115
aI126
aI137
aI138
aI139
aI140
aI141
aI152
aI163
aI174
aI185
aI184
aI183
aI182
aI181
aI180
aI179
aI178
aI177
aI176
aI187
aI198
aI209
ag3
tp1781
a((lp1782
I6
aI17
aI28
aI39
aI50
aI61
aI72
aI83
aI94
aI93
aI104
aI115
aI126
aI137
aI138
aI139
aI140
aI141
aI152
aI163
aI174
aI185
aI184
aI183
aI194
aI205
aI216
ag3
tp1783
a((lp1784
I7
aI18
aI29
aI40
aI51
aI62
aI73
aI84
aI95
aI94
aI93
aI92
aI91
aI90
aI101
aI112
aI123
aI134
aI135
aI136
aI137
aI138
aI149
aI160
aI171
aI182
aI193
aI204
aI215
ag3
tp1785
a((lp1786
I6
aI17
aI28
aI39
aI50
aI61
aI72
aI83
aI94
aI93
aI104
aI115
aI126
aI137
aI138
aI139
aI140
aI141
aI152
aI163
aI174
aI185
aI196
aI207
aI218
ag3
tp1787
a((lp1788
I3
aI14
aI25
aI36
aI47
aI58
aI69
aI80
aI91
aI90
aI101
aI112
aI123
aI134
aI135
aI136
aI137
aI138
aI149
aI160
aI171
aI182
aI193
aI204
aI215
ag3
tp1789
a((lp1790
I0
aI11
aI22
aI33
aI44
aI45
aI56
aI67
aI78
aI89
aI90
aI101
aI112
aI123
aI134
aI135
aI136
aI137
aI138
aI149
aI160
aI171
aI182
aI181
aI180
aI179
aI178
aI177
aI176
aI187
aI198
aI209
ag3
tp1791
a((lp1792
I4
aI15
aI26
aI37
aI48
aI59
aI70
aI81
aI92
aI93
aI104
aI115
aI126
aI137
aI138
aI139
aI140
aI141
aI152
aI163
aI174
aI185
aI184
aI183
aI194
aI205
aI216
ag3
tp1793
aa(lp1794
((lp1795
I0
aI11
aI22
aI33
aI44
aI45
aI56
aI67
aI78
aI89
aI90
aI91
aI92
aI93
aI104
aI115
aI126
aI137
aI138
aI139
aI140
aI141
aI152
aI163
aI174
aI185
aI196
aI207
aI218
ag3
tp1796
a((lp1797
I9
aI20
aI31
aI42
aI53
aI52
aI63
aI74
aI85
aI96
aI107
aI118
aI129
aI140
aI139
aI138
aI149
aI160
aI171
aI182
aI181
aI180
aI179
aI178
aI177
aI176
aI187
aI198
aI209
ag3
tp1798
a((lp1799
I0
aI11
aI22
aI33
aI44
aI45
aI56
aI67
aI78
aI89
aI90
aI91
aI92
aI93
aI104
aI115
aI126
aI137
aI138
aI149
aI160
aI171
aI182
aI193
aI204
aI215
ag3
tp1800
a((lp1801
I1
aI12
aI23
aI34
aI45
aI56
aI67
aI78
aI89
aI90
aI91
aI92
aI93
aI104
aI115
aI126
aI137
aI148
aI159
aI170
aI181
aI192
aI203
aI214
ag3
tp1802
a((lp1803
I9
aI20
aI31
aI42
aI53
aI64
aI75
aI86
aI97
aI96
aI107
aI118
aI129
aI140
aI139
aI138
aI149
aI160
aI171
aI182
aI181
aI180
aI179
aI178
aI177
aI176
aI187
aI198
aI209
ag3
tp1804
a((lp1805
I8
aI19
aI30
aI41
aI52
aI63
aI74
aI85
aI96
aI107
aI118
aI129
aI140
aI139
aI138
aI149
aI160
aI171
aI182
aI181
aI180
aI179
aI178
aI177
aI176
aI187
aI198
aI209
ag3
tp1806
a((lp1807
I0
aI11
aI22
aI33
aI44
aI45
aI56
aI67
aI78
aI89
aI90
aI91
aI92
aI93
aI104
aI115
aI126
aI137
aI148
aI159
aI170
aI181
aI192
aI203
aI214
ag3
tp1808
a((lp1809
I10
aI21
aI32
aI43
aI54
aI53
aI52
aI63
aI74
aI85
aI96
aI107
aI118
aI129
aI140
aI139
aI138
aI149
aI160
aI171
aI182
aI181
aI180
aI179
aI178
aI177
aI176
aI187
aI198
aI209
ag3
tp1810
aa(lp1811
((lp1812
I4
aI15
aI26
aI37
aI48
aI49
aI50
aI51
aI62
aI73
aI84
aI95
aI96
aI107
aI118
aI129
aI140
aI139
aI138
aI149
aI160
aI171
aI182
aI181
aI180
aI179
aI178
aI177
aI176
aI187
aI198
aI209
ag3
tp1813
a((lp1814
I3
aI14
aI25
aI36
aI47
aI48
aI49
aI50
aI51
aI62
aI73
aI84
aI95
aI96
aI107
aI118
aI129
aI140
aI139
aI138
aI149
aI160
aI171
aI182
aI183
aI194
aI205
aI216
ag3
tp1815
a((lp1816
I8
aI19
aI30
aI41
aI52
aI63
aI74
aI85
aI96
aI107
aI118
aI129
aI140
aI139
aI138
aI149
aI160
aI171
aI182
aI183
aI194
aI205
aI216
ag3
tp1817
a((lp1818
I3
aI14
aI25
aI36
aI47
aI46
aI45
aI56
aI67
aI78
aI89
aI90
aI91
aI92
aI93
aI104
aI115
aI126
aI137
aI138
aI139
aI140
aI141
aI152
aI163
aI174
aI185
aI196
aI207
aI218
ag3
tp1819
a((lp1820
I2
aI13
aI24
aI35
aI46
aI45
aI56
aI67
aI78
aI89
aI90
aI91
aI92
aI93
aI104
aI115
aI126
aI137
aI148
aI159
aI170
aI181
aI192
aI203
aI214
ag3
tp1821
a((lp1822
I2
aI13
aI24
aI35
aI46
aI45
aI56
aI67
aI78
aI89
aI90
aI91
aI92
aI93
aI104
aI115
aI126
aI137
aI138
aI149
aI160
aI171
aI182
aI193
aI204
aI215
ag3
tp1823
a((lp1824
I4
aI15
aI26
aI37
aI48
aI59
aI70
aI81
aI92
aI93
aI94
aI95
aI96
aI107
aI118
aI129
aI140
aI139
aI138
aI149
aI160
aI171
aI182
aI181
aI180
aI179
aI178
aI177
aI176
aI187
aI198
aI209
ag3
tp1825
a((lp1826
I2
aI13
aI24
aI35
aI46
aI45
aI56
aI67
aI78
aI89
aI90
aI91
aI92
aI93
aI104
aI115
aI126
aI137
aI136
aI135
aI146
aI157
aI168
aI179
aI178
aI177
aI176
aI187
aI198
aI209
ag3
tp1827
aa(lp1828
((lp1829
I8
aI19
aI30
aI41
aI52
aI51
aI62
aI73
aI84
aI95
aI94
aI93
aI104
aI115
aI126
aI137
aI136
aI135
aI146
aI157
aI168
aI179
aI178
aI177
aI176
aI187
aI198
aI209
ag3
tp1830
a((lp1831
I0
aI11
aI22
aI33
aI44
aI45
aI46
aI47
aI48
aI59
aI70
aI81
aI92
aI93
aI94
aI95
aI96
aI107
aI118
aI129
aI140
aI141
aI152
aI163
aI174
aI185
aI196
aI207
aI218
ag3
tp1832
a((lp1833
I10
aI21
aI32
aI43
aI54
aI53
aI52
aI51
aI62
aI73
aI84
aI95
aI94
aI93
aI104
aI115
aI126
aI137
aI136
aI135
aI146
aI157
aI168
aI179
aI178
aI177
aI176
aI187
aI198
aI209
ag3
tp1834
a((lp1835
I0
aI11
aI22
aI33
aI44
aI45
aI46
aI47
aI48
aI59
aI70
aI81
aI92
aI103
aI114
aI125
aI136
aI147
aI158
aI169
aI180
aI191
aI202
aI213
ag3
tp1836
a((lp1837
I4
aI15
aI26
aI37
aI48
aI59
aI70
aI81
aI92
aI91
aI102
aI113
aI124
aI135
aI146
aI157
aI168
aI179
aI190
aI201
aI212
ag3
tp1838
a((lp1839
I4
aI15
aI26
aI37
aI48
aI59
aI70
aI81
aI92
aI91
aI90
aI101
aI112
aI123
aI134
aI133
aI132
aI143
aI154
aI165
aI176
aI187
aI198
aI209
ag3
tp1840
a((lp1841
I9
aI20
aI31
aI42
aI53
aI52
aI51
aI62
aI73
aI84
aI95
aI94
aI93
aI104
aI115
aI126
aI137
aI136
aI135
aI146
aI157
aI168
aI179
aI178
aI177
aI176
aI187
aI198
aI209
ag3
tp1842
a((lp1843
I7
aI18
aI29
aI40
aI51
aI62
aI73
aI84
aI95
aI94
aI93
aI104
aI115
aI126
aI137
aI136
aI135
aI146
aI157
aI168
aI179
aI178
aI177
aI176
aI187
aI198
aI209
ag3
tp1844
aa(lp1845
((lp1846
I7
aI18
aI29
aI40
aI51
aI62
aI73
aI84
aI95
aI94
aI93
aI104
aI115
aI126
aI137
aI136
aI135
aI146
aI157
aI168
aI179
aI180
aI191
aI202
aI213
ag3
tp1847
a((lp1848
I3
aI14
aI25
aI36
aI47
aI48
aI59
aI70
aI81
aI92
aI91
aI102
aI113
aI124
aI135
aI146
aI157
aI168
aI179
aI190
aI201
aI212
ag3
tp1849
a((lp1850
I8
aI19
aI30
aI41
aI52
aI51
aI62
aI73
aI84
aI95
aI94
aI93
aI104
aI115
aI126
aI137
aI136
aI135
aI146
aI157
aI168
aI179
aI180
aI191
aI202
aI213
ag3
tp1851
a((lp1852
I10
aI21
aI32
aI43
aI54
aI53
aI52
aI51
aI62
aI73
aI84
aI95
aI94
aI93
aI104
aI115
aI126
aI137
aI136
aI135
aI146
aI157
aI168
aI179
aI180
aI191
aI202
aI213
ag3
tp1853
a((lp1854
I9
aI20
aI31
aI42
aI53
aI52
aI51
aI62
aI73
aI84
aI95
aI94
aI93
aI104
aI115
aI126
aI137
aI136
aI135
aI146
aI157
aI168
aI179
aI180
aI191
aI202
aI213
ag3
tp1855
a((lp1856
I6
aI17
aI28
aI39
aI50
aI49
aI48
aI59
aI70
aI81
aI92
aI93
aI104
aI115
aI126
aI137
aI148
aI159
aI170
aI181
aI192
aI203
aI214
ag3
tp1857
a((lp1858
I0
aI11
aI22
aI33
aI44
aI45
aI46
aI47
aI48
aI59
aI70
aI81
aI92
aI91
aI102
aI113
aI124
aI135
aI146
aI157
aI168
aI179
aI190
aI201
aI212
ag3
tp1859
a((lp1860
I3
aI14
aI25
aI36
aI47
aI48
aI59
aI70
aI81
aI92
aI91
aI90
aI101
aI112
aI123
aI134
aI133
aI132
aI143
aI154
aI165
aI176
aI187
aI198
aI209
ag3
tp1861
aa(lp1862
((lp1863
I1
aI12
aI23
aI34
aI45
aI56
aI67
aI78
aI89
aI90
aI101
aI112
aI123
aI134
aI135
aI146
aI157
aI168
aI179
aI180
aI191
aI202
aI213
ag3
tp1864
a((lp1865
I2
aI13
aI24
aI35
aI46
aI47
aI48
aI49
aI50
aI51
aI62
aI73
aI84
aI95
aI96
aI107
aI118
aI129
aI140
aI141
aI152
aI163
aI174
aI185
aI196
aI207
aI218
ag3
tp1866
a((lp1867
I0
aI11
aI22
aI33
aI44
aI45
aI56
aI67
aI78
aI89
aI90
aI101
aI112
aI123
aI134
aI135
aI146
aI157
aI168
aI179
aI180
aI191
aI202
aI213
ag3
tp1868
a((lp1869
I1
aI12
aI23
aI34
aI45
aI46
aI47
aI48
aI49
aI50
aI51
aI62
aI73
aI84
aI95
aI96
aI107
aI118
aI129
aI140
aI141
aI152
aI163
aI174
aI185
aI196
aI207
aI218
ag3
tp1870
a((lp1871
I0
aI11
aI22
aI33
aI44
aI45
aI56
aI67
aI78
aI89
aI90
aI101
aI112
aI123
aI134
aI135
aI146
aI157
aI168
aI179
aI190
aI201
aI212
ag3
tp1872
a((lp1873
I3
aI14
aI25
aI36
aI47
aI48
aI49
aI50
aI51
aI62
aI73
aI84
aI95
aI96
aI107
aI118
aI129
aI140
aI141
aI152
aI163
aI174
aI185
aI196
aI207
aI218
ag3
tp1874
a((lp1875
I0
aI11
aI22
aI33
aI44
aI45
aI46
aI47
aI48
aI49
aI50
aI51
aI62
aI73
aI84
aI95
aI96
aI107
aI118
aI129
aI140
aI141
aI152
aI163
aI174
aI185
aI196
aI207
aI218
ag3
tp1876
a((lp1877
I1
aI12
aI23
aI34
aI45
aI56
aI67
aI78
aI89
aI90
aI101
aI112
aI123
aI134
aI135
aI146
aI157
aI168
aI179
aI190
aI201
aI212
ag3
tp1878
aa(lp1879
((lp1880
I3
aI14
aI25
aI36
aI47
aI46
aI45
aI56
aI67
aI78
aI89
aI90
aI101
aI112
aI123
aI134
aI135
aI146
aI157
aI168
aI179
aI178
aI177
aI176
aI187
aI198
aI209
ag3
tp1881
a((lp1882
I9
aI20
aI31
aI42
aI53
aI52
aI51
aI62
aI73
aI84
aI95
aI96
aI107
aI118
aI129
aI140
aI141
aI152
aI163
aI174
aI185
aI196
aI207
aI218
ag3
tp1883
a((lp1884
I7
aI18
aI29
aI40
aI51
aI62
aI73
aI84
aI95
aI96
aI107
aI118
aI129
aI140
aI141
aI152
aI163
aI174
aI185
aI184
aI183
aI182
aI181
aI180
aI179
aI178
aI177
aI176
aI187
aI198
aI209
ag3
tp1885
a((lp1886
I9
aI20
aI31
aI42
aI53
aI52
aI51
aI62
aI73
aI84
aI95
aI96
aI107
aI118
aI129
aI140
aI141
aI152
aI163
aI174
aI185
aI184
aI183
aI182
aI181
aI180
aI179
aI178
aI177
aI176
aI187
aI198
aI209
ag3
tp1887
a((lp1888
I8
aI19
aI30
aI41
aI52
aI51
aI62
aI73
aI84
aI95
aI96
aI107
aI118
aI129
aI140
aI141
aI152
aI163
aI174
aI185
aI196
aI207
aI218
ag3
tp1889
a((lp1890
I2
aI13
aI24
aI35
aI46
aI45
aI56
aI67
aI78
aI89
aI90
aI101
aI112
aI123
aI134
aI135
aI146
aI157
aI168
aI179
aI190
aI201
aI212
ag3
tp1891
a((lp1892
I0
aI11
aI22
aI33
aI44
aI45
aI56
aI67
aI78
aI89
aI90
aI101
aI112
aI123
aI134
aI135
aI146
aI157
aI168
aI179
aI178
aI177
aI176
aI187
aI198
aI209
ag3
tp1893
a((lp1894
I3
aI14
aI25
aI36
aI47
aI46
aI45
aI56
aI67
aI78
aI89
aI90
aI101
aI112
aI123
aI134
aI135
aI146
aI157
aI168
aI179
aI190
aI201
aI212
ag3
tp1895
aa(lp1896
((lp1897
I1
aI12
aI23
aI34
aI45
aI56
aI67
aI78
aI89
aI90
aI91
aI92
aI93
aI94
aI95
aI96
aI107
aI118
aI129
aI140
aI139
aI138
aI137
aI136
aI135
aI146
aI157
aI168
aI179
aI178
aI177
aI176
aI187
aI198
aI209
ag3
tp1898
a((lp1899
I0
aI11
aI22
aI33
aI44
aI45
aI56
aI67
aI78
aI89
aI90
aI91
aI92
aI93
aI94
aI95
aI96
aI107
aI118
aI129
aI140
aI139
aI138
aI137
aI136
aI135
aI146
aI157
aI168
aI179
aI178
aI177
aI188
aI199
aI210
ag3
tp1900
a((lp1901
I8
aI19
aI30
aI41
aI52
aI51
aI62
aI73
aI84
aI95
aI94
aI93
aI92
aI91
aI90
aI101
aI112
aI123
aI134
aI135
aI136
aI137
aI138
aI139
aI140
aI141
aI152
aI163
aI174
aI185
aI196
aI207
aI218
ag3
tp1902
a((lp1903
I7
aI18
aI29
aI40
aI51
aI62
aI73
aI84
aI95
aI94
aI93
aI92
aI91
aI90
aI101
aI112
aI123
aI134
aI135
aI136
aI137
aI138
aI139
aI140
aI141
aI152
aI163
aI174
aI185
aI196
aI207
aI218
ag3
tp1904
a((lp1905
I9
aI20
aI31
aI42
aI53
aI52
aI51
aI62
aI73
aI84
aI95
aI94
aI93
aI92
aI91
aI90
aI101
aI112
aI123
aI134
aI135
aI136
aI137
aI138
aI139
aI140
aI141
aI152
aI163
aI174
aI185
aI196
aI207
aI218
ag3
tp1906
a((lp1907
I10
aI21
aI32
aI43
aI54
aI53
aI52
aI51
aI62
aI73
aI84
aI95
aI94
aI93
aI92
aI91
aI90
aI101
aI112
aI123
aI134
aI135
aI136
aI137
aI138
aI139
aI140
aI141
aI152
aI163
aI174
aI185
aI196
aI207
aI218
ag3
tp1908
a((lp1909
I0
aI11
aI22
aI33
aI44
aI45
aI56
aI67
aI78
aI89
aI90
aI91
aI92
aI93
aI94
aI95
aI96
aI107
aI118
aI129
aI140
aI139
aI138
aI137
aI136
aI135
aI146
aI157
aI168
aI179
aI178
aI177
aI176
aI187
aI198
aI209
ag3
tp1910
a((lp1911
I1
aI12
aI23
aI34
aI45
aI56
aI67
aI78
aI89
aI90
aI91
aI92
aI93
aI94
aI95
aI96
aI107
aI118
aI129
aI140
aI139
aI138
aI137
aI136
aI135
aI146
aI157
aI168
aI179
aI178
aI177
aI188
aI199
aI210
ag3
tp1912
aa(lp1913
((lp1914
I0
aI11
aI22
aI33
aI44
aI45
aI56
aI67
aI78
aI89
aI90
aI91
aI92
aI93
aI94
aI95
aI96
aI107
aI118
aI129
aI140
aI139
aI138
aI137
aI136
aI135
aI146
aI157
aI168
aI179
aI178
aI177
aI176
aI187
aI198
aI209
ag3
tp1915
a((lp1916
I7
aI18
aI29
aI40
aI51
aI62
aI73
aI84
aI95
aI94
aI93
aI92
aI91
aI90
aI101
aI112
aI123
aI134
aI135
aI136
aI137
aI138
aI139
aI140
aI141
aI152
aI163
aI174
aI185
aI184
aI183
aI182
aI181
aI180
aI179
aI178
aI177
aI176
aI187
aI198
aI209
ag3
tp1917
a((lp1918
I7
aI18
aI29
aI40
aI51
aI62
aI73
aI84
aI95
aI94
aI93
aI92
aI91
aI90
aI101
aI112
aI123
aI134
aI135
aI136
aI137
aI138
aI139
aI140
aI141
aI152
aI163
aI174
aI185
aI196
aI207
aI218
ag3
tp1919
a((lp1920
I0
aI11
aI22
aI33
aI44
aI45
aI46
aI47
aI48
aI49
aI50
aI51
aI62
aI73
aI84
aI95
aI94
aI93
aI92
aI91
aI90
aI101
aI112
aI123
aI134
aI135
aI136
aI137
aI138
aI139
aI140
aI141
aI152
aI163
aI174
aI185
aI196
aI207
aI218
ag3
tp1921
a((lp1922
I3
aI14
aI25
aI36
aI47
aI46
aI45
aI56
aI67
aI78
aI89
aI90
aI91
aI92
aI93
aI94
aI95
aI96
aI107
aI118
aI129
aI140
aI139
aI138
aI137
aI136
aI135
aI146
aI157
aI168
aI179
aI178
aI177
aI176
aI187
aI198
aI209
ag3
tp1923
a((lp1924
I3
aI14
aI25
aI36
aI47
aI46
aI45
aI56
aI67
aI78
aI89
aI90
aI91
aI92
aI93
aI94
aI95
aI96
aI107
aI118
aI129
aI140
aI139
aI138
aI137
aI136
aI135
aI146
aI157
aI168
aI179
aI180
aI191
aI202
aI213
ag3
tp1925
a((lp1926
I5
aI16
aI27
aI38
aI49
aI50
aI51
aI62
aI73
aI84
aI95
aI94
aI93
aI92
aI91
aI90
aI101
aI112
aI123
aI134
aI135
aI136
aI137
aI138
aI139
aI140
aI141
aI152
aI163
aI174
aI185
aI184
aI183
aI182
aI181
aI192
aI203
aI214
ag3
tp1927
a((lp1928
I2
aI13
aI24
aI35
aI46
aI45
aI56
aI67
aI78
aI89
aI90
aI91
aI92
aI93
aI94
aI95
aI96
aI107
aI118
aI129
aI140
aI139
aI138
aI137
aI136
aI135
aI146
aI157
aI168
aI179
aI180
aI191
aI202
aI213
ag3
tp1929
aa.